target datalayout = "e-m:e-p270:32:32-p271:32:32-p272:64:64-i64:64-i128:128-f80:128-n8:16:32:64-S128"
target triple = "x86_64-pc-linux-gnu"

%struct.JNINativeInterface_ = type { ptr, ptr, ptr, ptr, ptr, ptr, ptr, ptr, ptr, ptr, ptr, ptr, ptr, ptr, ptr, ptr, ptr, ptr, ptr, ptr, ptr, ptr, ptr, ptr, ptr, ptr, ptr, ptr, ptr, ptr, ptr, ptr, ptr, ptr, ptr, ptr, ptr, ptr, ptr, ptr, ptr, ptr, ptr, ptr, ptr, ptr, ptr, ptr, ptr, ptr, ptr, ptr, ptr, ptr, ptr, ptr, ptr, ptr, ptr, ptr, ptr, ptr, ptr, ptr, ptr, ptr, ptr, ptr, ptr, ptr, ptr, ptr, ptr, ptr, ptr, ptr, ptr, ptr, ptr, ptr, ptr, ptr, ptr, ptr, ptr, ptr, ptr, ptr, ptr, ptr, ptr, ptr, ptr, ptr, ptr, ptr, ptr, ptr, ptr, ptr, ptr, ptr, ptr, ptr, ptr, ptr, ptr, ptr, ptr, ptr, ptr, ptr, ptr, ptr, ptr, ptr, ptr, ptr, ptr, ptr, ptr, ptr, ptr, ptr, ptr, ptr, ptr, ptr, ptr, ptr, ptr, ptr, ptr, ptr, ptr, ptr, ptr, ptr, ptr, ptr, ptr, ptr, ptr, ptr, ptr, ptr, ptr, ptr, ptr, ptr, ptr, ptr, ptr, ptr, ptr, ptr, ptr, ptr, ptr, ptr, ptr, ptr, ptr, ptr, ptr, ptr, ptr, ptr, ptr, ptr, ptr, ptr, ptr, ptr, ptr, ptr, ptr, ptr, ptr, ptr, ptr, ptr, ptr, ptr, ptr, ptr, ptr, ptr, ptr, ptr, ptr, ptr, ptr, ptr, ptr, ptr, ptr, ptr, ptr, ptr, ptr, ptr, ptr, ptr, ptr, ptr, ptr, ptr, ptr, ptr, ptr, ptr, ptr, ptr, ptr, ptr, ptr, ptr, ptr, ptr, ptr, ptr, ptr, ptr, ptr, ptr, ptr, ptr, ptr, ptr, ptr, ptr, ptr, ptr, ptr }
%struct.sockaddr_in6 = type { i16, i16, i32, %struct.in6_addr, i32 }
%struct.in6_addr = type { %union.anon }
%union.anon = type { [4 x i32] }
%struct.ipv6_mreq = type { %struct.in6_addr, i32 }
%struct.group_source_req = type { i32, %struct.sockaddr_storage, %struct.sockaddr_storage }
%struct.sockaddr_storage = type { i16, [118 x i8], i64 }

@.str.3 = private unnamed_addr constant [25 x i8] c"java/net/SocketException\00", align 1
@.str.12 = private unnamed_addr constant [18 x i8] c"setsockopt failed\00", align 1
@.str.14 = private unnamed_addr constant [27 x i8] c"java/net/ProtocolException\00", align 1
@.str.15 = private unnamed_addr constant [26 x i8] c"java/net/ConnectException\00", align 1
@.str.16 = private unnamed_addr constant [32 x i8] c"java/net/NoRouteToHostException\00", align 1
@.str.17 = private unnamed_addr constant [23 x i8] c"java/net/BindException\00", align 1
@.str.18 = private unnamed_addr constant [15 x i8] c"NioSocketError\00", align 1

; Function Attrs: nounwind uwtable
define internal i32 @handleSocketErrorWithMessage(ptr noundef %0, i32 noundef %1, ptr noundef %2) #0 {
  %4 = alloca i32, align 4
  %5 = alloca ptr, align 8
  %6 = alloca i32, align 4
  %7 = alloca ptr, align 8
  %8 = alloca ptr, align 8
  store ptr %0, ptr %5, align 8
  store i32 %1, ptr %6, align 4
  store ptr %2, ptr %7, align 8
  %9 = load i32, ptr %6, align 4
  switch i32 %9, label %15 [
    i32 115, label %10
    i32 71, label %11
    i32 111, label %12
    i32 110, label %12
    i32 107, label %12
    i32 113, label %13
    i32 98, label %14
    i32 99, label %14
    i32 13, label %14
  ]

10:                                               ; preds = %3
  store i32 0, ptr %4, align 4
  br label %29

11:                                               ; preds = %3
  store ptr @.str.14, ptr %8, align 8
  br label %16

12:                                               ; preds = %3, %3, %3
  store ptr @.str.15, ptr %8, align 8
  br label %16

13:                                               ; preds = %3
  store ptr @.str.16, ptr %8, align 8
  br label %16

14:                                               ; preds = %3, %3, %3
  store ptr @.str.17, ptr %8, align 8
  br label %16

15:                                               ; preds = %3
  store ptr @.str.3, ptr %8, align 8
  br label %16

16:                                               ; preds = %15, %14, %13, %12, %11
  %17 = load i32, ptr %6, align 4
  %18 = call ptr @__errno_location() #4
  store i32 %17, ptr %18, align 4
  %19 = load ptr, ptr %7, align 8
  %20 = icmp eq ptr %19, null
  br i1 %20, label %21, label %24

21:                                               ; preds = %16
  %22 = load ptr, ptr %5, align 8
  %23 = load ptr, ptr %8, align 8
  call void @JNU_ThrowByNameWithLastError(ptr noundef %22, ptr noundef %23, ptr noundef @.str.18)
  br label %28

24:                                               ; preds = %16
  %25 = load ptr, ptr %5, align 8
  %26 = load ptr, ptr %8, align 8
  %27 = load ptr, ptr %7, align 8
  call void @JNU_ThrowByNameWithMessageAndLastError(ptr noundef %25, ptr noundef %26, ptr noundef %27)
  br label %28

28:                                               ; preds = %24, %21
  store i32 -5, ptr %4, align 4
  br label %29

29:                                               ; preds = %28, %10
  %30 = load i32, ptr %4, align 4
  ret i32 %30
}

; Function Attrs: nounwind uwtable
define internal void @initGroupSourceReq(ptr noundef %0, ptr noundef %1, i32 noundef %2, ptr noundef %3, ptr noundef %4) #0 {
  %6 = alloca ptr, align 8
  %7 = alloca ptr, align 8
  %8 = alloca i32, align 4
  %9 = alloca ptr, align 8
  %10 = alloca ptr, align 8
  %11 = alloca ptr, align 8
  store ptr %0, ptr %6, align 8
  store ptr %1, ptr %7, align 8
  store i32 %2, ptr %8, align 4
  store ptr %3, ptr %9, align 8
  store ptr %4, ptr %10, align 8
  %12 = load i32, ptr %8, align 4
  %13 = load ptr, ptr %10, align 8
  %14 = getelementptr inbounds %struct.group_source_req, ptr %13, i32 0, i32 0
  store i32 %12, ptr %14, align 8
  %15 = load ptr, ptr %10, align 8
  %16 = getelementptr inbounds %struct.group_source_req, ptr %15, i32 0, i32 1
  store ptr %16, ptr %11, align 8
  %17 = load ptr, ptr %11, align 8
  %18 = getelementptr inbounds %struct.sockaddr_in6, ptr %17, i32 0, i32 0
  store i16 10, ptr %18, align 4
  %19 = load ptr, ptr %6, align 8
  %20 = load ptr, ptr %19, align 8
  %21 = getelementptr inbounds %struct.JNINativeInterface_, ptr %20, i32 0, i32 200
  %22 = load ptr, ptr %21, align 8
  %23 = load ptr, ptr %6, align 8
  %24 = load ptr, ptr %7, align 8
  %25 = load ptr, ptr %11, align 8
  %26 = getelementptr inbounds %struct.sockaddr_in6, ptr %25, i32 0, i32 3
  call void %22(ptr noundef %23, ptr noundef %24, i32 noundef 0, i32 noundef 16, ptr noundef %26)
  %27 = load ptr, ptr %10, align 8
  %28 = getelementptr inbounds %struct.group_source_req, ptr %27, i32 0, i32 2
  store ptr %28, ptr %11, align 8
  %29 = load ptr, ptr %11, align 8
  %30 = getelementptr inbounds %struct.sockaddr_in6, ptr %29, i32 0, i32 0
  store i16 10, ptr %30, align 4
  %31 = load ptr, ptr %6, align 8
  %32 = load ptr, ptr %31, align 8
  %33 = getelementptr inbounds %struct.JNINativeInterface_, ptr %32, i32 0, i32 200
  %34 = load ptr, ptr %33, align 8
  %35 = load ptr, ptr %6, align 8
  %36 = load ptr, ptr %9, align 8
  %37 = load ptr, ptr %11, align 8
  %38 = getelementptr inbounds %struct.sockaddr_in6, ptr %37, i32 0, i32 3
  call void %34(ptr noundef %35, ptr noundef %36, i32 noundef 0, i32 noundef 16, ptr noundef %38)
  ret void
}

; Function Attrs: nounwind uwtable
define i32 @Java_sun_nio_ch_Net_joinOrDrop6(ptr noundef %0, ptr noundef %1, i8 noundef zeroext %2, ptr noundef %3, ptr noundef %4, i32 noundef %5, ptr noundef %6) #0 {
  %8 = alloca i32, align 4
  %9 = alloca ptr, align 8
  %10 = alloca ptr, align 8
  %11 = alloca i8, align 1
  %12 = alloca ptr, align 8
  %13 = alloca ptr, align 8
  %14 = alloca i32, align 4
  %15 = alloca ptr, align 8
  %16 = alloca %struct.ipv6_mreq, align 4
  %17 = alloca %struct.group_source_req, align 8
  %18 = alloca i32, align 4
  %19 = alloca i32, align 4
  %20 = alloca i32, align 4
  %21 = alloca ptr, align 8
  store ptr %0, ptr %9, align 8
  store ptr %1, ptr %10, align 8
  store i8 %2, ptr %11, align 1
  store ptr %3, ptr %12, align 8
  store ptr %4, ptr %13, align 8
  store i32 %5, ptr %14, align 4
  store ptr %6, ptr %15, align 8
  %22 = load ptr, ptr %15, align 8
  %23 = icmp eq ptr %22, null
  br i1 %23, label %24, label %38

24:                                               ; preds = %7
  %25 = load ptr, ptr %9, align 8
  %26 = load ptr, ptr %25, align 8
  %27 = getelementptr inbounds %struct.JNINativeInterface_, ptr %26, i32 0, i32 200
  %28 = load ptr, ptr %27, align 8
  %29 = load ptr, ptr %9, align 8
  %30 = load ptr, ptr %13, align 8
  %31 = getelementptr inbounds %struct.ipv6_mreq, ptr %16, i32 0, i32 0
  call void %28(ptr noundef %29, ptr noundef %30, i32 noundef 0, i32 noundef 16, ptr noundef %31)
  %32 = load i32, ptr %14, align 4
  %33 = getelementptr inbounds %struct.ipv6_mreq, ptr %16, i32 0, i32 1
  store i32 %32, ptr %33, align 4
  %34 = load i8, ptr %11, align 1
  %35 = zext i8 %34 to i32
  %36 = icmp ne i32 %35, 0
  %37 = select i1 %36, i32 20, i32 21
  store i32 %37, ptr %18, align 4
  store ptr %16, ptr %21, align 8
  store i32 20, ptr %20, align 4
  br label %47

38:                                               ; preds = %7
  %39 = load ptr, ptr %9, align 8
  %40 = load ptr, ptr %13, align 8
  %41 = load i32, ptr %14, align 4
  %42 = load ptr, ptr %15, align 8
  call void @initGroupSourceReq(ptr noundef %39, ptr noundef %40, i32 noundef %41, ptr noundef %42, ptr noundef %17)
  %43 = load i8, ptr %11, align 1
  %44 = zext i8 %43 to i32
  %45 = icmp ne i32 %44, 0
  %46 = select i1 %45, i32 46, i32 47
  store i32 %46, ptr %18, align 4
  store ptr %17, ptr %21, align 8
  store i32 264, ptr %20, align 4
  br label %47

47:                                               ; preds = %38, %24
  %48 = load ptr, ptr %9, align 8
  %49 = load ptr, ptr %12, align 8
  %50 = call i32 @fdval(ptr noundef %48, ptr noundef %49)
  %51 = load i32, ptr %18, align 4
  %52 = load ptr, ptr %21, align 8
  %53 = load i32, ptr %20, align 4
  %54 = call i32 @setsockopt(i32 noundef %50, i32 noundef 41, i32 noundef %51, ptr noundef %52, i32 noundef %53) #5
  store i32 %54, ptr %19, align 4
  %55 = load i32, ptr %19, align 4
  %56 = icmp slt i32 %55, 0
  br i1 %56, label %57, label %75

57:                                               ; preds = %47
  %58 = load i8, ptr %11, align 1
  %59 = zext i8 %58 to i32
  %60 = icmp ne i32 %59, 0
  br i1 %60, label %61, label %70

61:                                               ; preds = %57
  %62 = call ptr @__errno_location() #4
  %63 = load i32, ptr %62, align 4
  %64 = icmp eq i32 %63, 92
  br i1 %64, label %69, label %65

65:                                               ; preds = %61
  %66 = call ptr @__errno_location() #4
  %67 = load i32, ptr %66, align 4
  %68 = icmp eq i32 %67, 95
  br i1 %68, label %69, label %70

69:                                               ; preds = %65, %61
  store i32 -2, ptr %8, align 4
  br label %76

70:                                               ; preds = %65, %57
  %71 = load ptr, ptr %9, align 8
  %72 = call ptr @__errno_location() #4
  %73 = load i32, ptr %72, align 4
  %74 = call i32 @handleSocketErrorWithMessage(ptr noundef %71, i32 noundef %73, ptr noundef @.str.12)
  br label %75

75:                                               ; preds = %70, %47
  store i32 0, ptr %8, align 4
  br label %76

76:                                               ; preds = %75, %69
  %77 = load i32, ptr %8, align 4
  ret i32 %77
}