; Function Attrs: nounwind uwtable
define range(i32 -2, 1) i32 @Java_sun_nio_ch_Net_joinOrDrop6(ptr noundef %0, ptr nocapture noundef readnone %1, i8 noundef zeroext %2, ptr noundef %3, ptr noundef %4, i32 noundef %5, ptr noundef %6) local_unnamed_addr #0 {
  %8 = alloca %struct.ipv6_mreq, align 4
  %9 = alloca %struct.group_source_req, align 8
  %10 = icmp eq ptr %6, null
  br i1 %10, label %11, label %17

11:                                               ; preds = %7
  %12 = load ptr, ptr %0, align 8
  %13 = getelementptr inbounds i8, ptr %12, i64 1600
  %14 = load ptr, ptr %13, align 8
  call void %14(ptr noundef nonnull %0, ptr noundef %4, i32 noundef 0, i32 noundef 16, ptr noundef nonnull %8) #7
  %15 = getelementptr inbounds i8, ptr %8, i64 16
  store i32 %5, ptr %15, align 4
  %.not24 = icmp eq i8 %2, 0
  %16 = select i1 %.not24, i32 21, i32 20
  br label %29

17:                                               ; preds = %7
  store i32 %5, ptr %9, align 8
  %18 = getelementptr inbounds i8, ptr %9, i64 8
  store i16 10, ptr %18, align 8
  %19 = load ptr, ptr %0, align 8
  %20 = getelementptr inbounds i8, ptr %19, i64 1600
  %21 = load ptr, ptr %20, align 8
  %22 = getelementptr inbounds i8, ptr %9, i64 16
  call void %21(ptr noundef nonnull %0, ptr noundef %4, i32 noundef 0, i32 noundef 16, ptr noundef nonnull %22) #7
  %23 = getelementptr inbounds i8, ptr %9, i64 136
  store i16 10, ptr %23, align 8
  %24 = load ptr, ptr %0, align 8
  %25 = getelementptr inbounds i8, ptr %24, i64 1600
  %26 = load ptr, ptr %25, align 8
  %27 = getelementptr inbounds i8, ptr %9, i64 144
  call void %26(ptr noundef nonnull %0, ptr noundef nonnull %6, i32 noundef 0, i32 noundef 16, ptr noundef nonnull %27) #7
  %.not = icmp eq i8 %2, 0
  %28 = select i1 %.not, i32 47, i32 46
  br label %29

29:                                               ; preds = %17, %11
  %.021 = phi i32 [ %16, %11 ], [ %28, %17 ]
  %.019 = phi i32 [ 20, %11 ], [ 264, %17 ]
  %.0 = phi ptr [ %8, %11 ], [ %9, %17 ]
  %30 = call i32 @fdval(ptr noundef nonnull %0, ptr noundef %3) #7
  %31 = call i32 @setsockopt(i32 noundef %30, i32 noundef 41, i32 noundef %.021, ptr noundef nonnull %.0, i32 noundef %.019) #7
  %32 = icmp slt i32 %31, 0
  br i1 %32, label %33, label %handleSocketErrorWithMessage.exit

33:                                               ; preds = %29
  %.not25 = icmp eq i8 %2, 0
  %.pre = tail call ptr @__errno_location() #6
  %.pr = load i32, ptr %.pre, align 4
  br i1 %.not25, label %._crit_edge, label %34

34:                                               ; preds = %33
  switch i32 %.pr, label %38 [
    i32 92, label %handleSocketErrorWithMessage.exit
    i32 95, label %handleSocketErrorWithMessage.exit
    i32 115, label %handleSocketErrorWithMessage.exit.fold.split
    i32 71, label %39
    i32 111, label %35
    i32 110, label %35
    i32 107, label %35
    i32 113, label %36
    i32 98, label %37
    i32 99, label %37
    i32 13, label %37
  ]

._crit_edge:                                      ; preds = %33
  switch i32 %.pr, label %38 [
    i32 115, label %handleSocketErrorWithMessage.exit.fold.split
    i32 71, label %39
    i32 111, label %35
    i32 110, label %35
    i32 107, label %35
    i32 113, label %36
    i32 98, label %37
    i32 99, label %37
    i32 13, label %37
  ]

35:                                               ; preds = %34, %34, %34, %._crit_edge, %._crit_edge, %._crit_edge
  br label %39

36:                                               ; preds = %34, %._crit_edge
  br label %39

37:                                               ; preds = %34, %34, %34, %._crit_edge, %._crit_edge, %._crit_edge
  br label %39

38:                                               ; preds = %34, %._crit_edge
  br label %39

39:                                               ; preds = %34, %38, %37, %36, %35, %._crit_edge
  %.0.i = phi ptr [ @.str.3, %38 ], [ @.str.17, %37 ], [ @.str.16, %36 ], [ @.str.15, %35 ], [ @.str.14, %._crit_edge ], [ @.str.14, %34 ]
  call void @JNU_ThrowByNameWithMessageAndLastError(ptr noundef nonnull %0, ptr noundef nonnull %.0.i, ptr noundef nonnull @.str.12) #7
  br label %handleSocketErrorWithMessage.exit

handleSocketErrorWithMessage.exit.fold.split:     ; preds = %34, %._crit_edge
  br label %handleSocketErrorWithMessage.exit

handleSocketErrorWithMessage.exit:                ; preds = %34, %34, %handleSocketErrorWithMessage.exit.fold.split, %39, %29
  %.020 = phi i32 [ -2, %34 ], [ -2, %34 ], [ 0, %29 ], [ 0, %39 ], [ 0, %handleSocketErrorWithMessage.exit.fold.split ]
  ret i32 %.020
}